target datalayout = "e-m:e-p270:32:32-p271:32:32-p272:64:64-i64:64-i128:128-f80:128-n8:16:32:64-S128"
target triple = "x86_64-unknown-linux-gnu"

%class.btCollisionWorldImporter = type { ptr, ptr, i32, [4 x i8], %class.btAlignedObjectArray, %class.btAlignedObjectArray.0, %class.btAlignedObjectArray.4, %class.btAlignedObjectArray.8, %class.btAlignedObjectArray.12, %class.btAlignedObjectArray.16, %class.btAlignedObjectArray.0, %class.btAlignedObjectArray.20, %class.btAlignedObjectArray.24, %class.btAlignedObjectArray.28, %class.btAlignedObjectArray.32, %class.btAlignedObjectArray.36, %class.btAlignedObjectArray.40, %class.btHashMap, %class.btHashMap.52, %class.btHashMap.53, %class.btHashMap.58, %class.btHashMap.59, %class.btHashMap.64, %class.btHashMap.65 }
%class.btAlignedObjectArray = type <{ %class.btAlignedAllocator, [3 x i8], i32, i32, [4 x i8], ptr, i8, [7 x i8] }>
%class.btAlignedAllocator = type { i8 }
%class.btAlignedObjectArray.4 = type <{ %class.btAlignedAllocator.5, [3 x i8], i32, i32, [4 x i8], ptr, i8, [7 x i8] }>
%class.btAlignedAllocator.5 = type { i8 }
%class.btAlignedObjectArray.8 = type <{ %class.btAlignedAllocator.9, [3 x i8], i32, i32, [4 x i8], ptr, i8, [7 x i8] }>
%class.btAlignedAllocator.9 = type { i8 }
%class.btAlignedObjectArray.12 = type <{ %class.btAlignedAllocator.13, [3 x i8], i32, i32, [4 x i8], ptr, i8, [7 x i8] }>
%class.btAlignedAllocator.13 = type { i8 }
%class.btAlignedObjectArray.16 = type <{ %class.btAlignedAllocator.17, [3 x i8], i32, i32, [4 x i8], ptr, i8, [7 x i8] }>
%class.btAlignedAllocator.17 = type { i8 }
%class.btAlignedObjectArray.0 = type <{ %class.btAlignedAllocator.1, [3 x i8], i32, i32, [4 x i8], ptr, i8, [7 x i8] }>
%class.btAlignedAllocator.1 = type { i8 }
%class.btAlignedObjectArray.20 = type <{ %class.btAlignedAllocator.21, [3 x i8], i32, i32, [4 x i8], ptr, i8, [7 x i8] }>
%class.btAlignedAllocator.21 = type { i8 }
%class.btAlignedObjectArray.24 = type <{ %class.btAlignedAllocator.25, [3 x i8], i32, i32, [4 x i8], ptr, i8, [7 x i8] }>
%class.btAlignedAllocator.25 = type { i8 }
%class.btAlignedObjectArray.28 = type <{ %class.btAlignedAllocator.29, [3 x i8], i32, i32, [4 x i8], ptr, i8, [7 x i8] }>
%class.btAlignedAllocator.29 = type { i8 }
%class.btAlignedObjectArray.32 = type <{ %class.btAlignedAllocator.33, [3 x i8], i32, i32, [4 x i8], ptr, i8, [7 x i8] }>
%class.btAlignedAllocator.33 = type { i8 }
%class.btAlignedObjectArray.36 = type <{ %class.btAlignedAllocator.37, [3 x i8], i32, i32, [4 x i8], ptr, i8, [7 x i8] }>
%class.btAlignedAllocator.37 = type { i8 }
%class.btAlignedObjectArray.40 = type <{ %class.btAlignedAllocator.41, [3 x i8], i32, i32, [4 x i8], ptr, i8, [7 x i8] }>
%class.btAlignedAllocator.41 = type { i8 }
%class.btHashMap = type { %class.btAlignedObjectArray.44, %class.btAlignedObjectArray.44, %class.btAlignedObjectArray.4, %class.btAlignedObjectArray.48 }
%class.btAlignedObjectArray.44 = type <{ %class.btAlignedAllocator.45, [3 x i8], i32, i32, [4 x i8], ptr, i8, [7 x i8] }>
%class.btAlignedAllocator.45 = type { i8 }
%class.btAlignedObjectArray.48 = type <{ %class.btAlignedAllocator.49, [3 x i8], i32, i32, [4 x i8], ptr, i8, [7 x i8] }>
%class.btAlignedAllocator.49 = type { i8 }
%class.btHashMap.52 = type { %class.btAlignedObjectArray.44, %class.btAlignedObjectArray.44, %class.btAlignedObjectArray.8, %class.btAlignedObjectArray.48 }
%class.btHashMap.53 = type { %class.btAlignedObjectArray.44, %class.btAlignedObjectArray.44, %class.btAlignedObjectArray, %class.btAlignedObjectArray.54 }
%class.btAlignedObjectArray.54 = type <{ %class.btAlignedAllocator.55, [3 x i8], i32, i32, [4 x i8], ptr, i8, [7 x i8] }>
%class.btAlignedAllocator.55 = type { i8 }
%class.btHashMap.58 = type { %class.btAlignedObjectArray.44, %class.btAlignedObjectArray.44, %class.btAlignedObjectArray.0, %class.btAlignedObjectArray.54 }
%class.btHashMap.59 = type { %class.btAlignedObjectArray.44, %class.btAlignedObjectArray.44, %class.btAlignedObjectArray.60, %class.btAlignedObjectArray.48 }
%class.btAlignedObjectArray.60 = type <{ %class.btAlignedAllocator.61, [3 x i8], i32, i32, [4 x i8], ptr, i8, [7 x i8] }>
%class.btAlignedAllocator.61 = type { i8 }
%class.btHashMap.64 = type { %class.btAlignedObjectArray.44, %class.btAlignedObjectArray.44, %class.btAlignedObjectArray, %class.btAlignedObjectArray.48 }
%class.btHashMap.65 = type { %class.btAlignedObjectArray.44, %class.btAlignedObjectArray.44, %class.btAlignedObjectArray.0, %class.btAlignedObjectArray.48 }
%struct.btHashString = type <{ %"class.std::__cxx11::basic_string", i32, [4 x i8] }>
%"class.std::__cxx11::basic_string" = type { %"struct.std::__cxx11::basic_string<char>::_Alloc_hider", i64, %union.anon.135 }
%"struct.std::__cxx11::basic_string<char>::_Alloc_hider" = type { ptr }
%union.anon.135 = type { i64, [8 x i8] }

; Function Attrs: mustprogress nounwind uwtable
define linkonce_odr dso_local noundef nonnull align 8 dereferenceable(8) ptr @_ZN20btAlignedObjectArrayIP16btCollisionShapeEixEi(ptr noundef nonnull align 8 dereferenceable(25) %this, i32 noundef %n) #1 comdat align 2 {
entry:
  %this.addr = alloca ptr, align 8
  %n.addr = alloca i32, align 4
  store ptr %this, ptr %this.addr, align 8
  store i32 %n, ptr %n.addr, align 4
  %this1 = load ptr, ptr %this.addr, align 8
  %m_data = getelementptr inbounds %class.btAlignedObjectArray, ptr %this1, i32 0, i32 5
  %0 = load ptr, ptr %m_data, align 8
  %1 = load i32, ptr %n.addr, align 4
  %idxprom = sext i32 %1 to i64
  %arrayidx = getelementptr inbounds ptr, ptr %0, i64 %idxprom
  ret ptr %arrayidx
}

; Function Attrs: mustprogress nounwind uwtable
define linkonce_odr dso_local void @_ZN12btHashStringD2Ev(ptr noundef nonnull align 8 dereferenceable(36) %this) unnamed_addr #1 comdat align 2 {
entry:
  %this.addr = alloca ptr, align 8
  store ptr %this, ptr %this.addr, align 8
  %this1 = load ptr, ptr %this.addr, align 8
  %m_string1 = getelementptr inbounds %struct.btHashString, ptr %this1, i32 0, i32 0
  call void @_ZNSt7__cxx1112basic_stringIcSt11char_traitsIcESaIcEED1Ev(ptr noundef nonnull align 8 dereferenceable(32) %m_string1) #13
  ret void
}

; Function Attrs: mustprogress uwtable
define linkonce_odr dso_local noundef ptr @_ZN9btHashMapI12btHashStringP16btCollisionShapeE4findERKS0_(ptr noundef nonnull align 8 dereferenceable(128) %this, ptr noundef nonnull align 8 dereferenceable(36) %key) #2 comdat align 2 {
entry:
  %retval = alloca ptr, align 8
  %this.addr = alloca ptr, align 8
  %key.addr = alloca ptr, align 8
  %index = alloca i32, align 4
  store ptr %this, ptr %this.addr, align 8
  store ptr %key, ptr %key.addr, align 8
  %this1 = load ptr, ptr %this.addr, align 8
  %0 = load ptr, ptr %key.addr, align 8
  %call = call noundef i32 @_ZNK9btHashMapI12btHashStringP16btCollisionShapeE9findIndexERKS0_(ptr noundef nonnull align 8 dereferenceable(128) %this1, ptr noundef nonnull align 8 dereferenceable(36) %0)
  store i32 %call, ptr %index, align 4
  %1 = load i32, ptr %index, align 4
  %cmp = icmp eq i32 %1, -1
  br i1 %cmp, label %if.then, label %if.end

if.then:                                          ; preds = %entry
  store ptr null, ptr %retval, align 8
  br label %return

if.end:                                           ; preds = %entry
  %m_valueArray = getelementptr inbounds %class.btHashMap.53, ptr %this1, i32 0, i32 2
  %2 = load i32, ptr %index, align 4
  %call2 = call noundef nonnull align 8 dereferenceable(8) ptr @_ZN20btAlignedObjectArrayIP16btCollisionShapeEixEi(ptr noundef nonnull align 8 dereferenceable(25) %m_valueArray, i32 noundef %2)
  store ptr %call2, ptr %retval, align 8
  br label %return

return:                                           ; preds = %if.end, %if.then
  %3 = load ptr, ptr %retval, align 8
  ret ptr %3
}

; Function Attrs: mustprogress uwtable
define dso_local noundef ptr @_ZN24btCollisionWorldImporter23getCollisionShapeByNameEPKc(ptr noundef nonnull align 8 dereferenceable(1336) %this, ptr noundef %name) #2 align 2 personality ptr @__gxx_personality_v0 {
entry:
  %retval = alloca ptr, align 8
  %this.addr = alloca ptr, align 8
  %name.addr = alloca ptr, align 8
  %shapePtr = alloca ptr, align 8
  %ref.tmp = alloca %struct.btHashString, align 8
  %exn.slot = alloca ptr, align 8
  %ehselector.slot = alloca i32, align 4
  store ptr %this, ptr %this.addr, align 8
  store ptr %name, ptr %name.addr, align 8
  %this1 = load ptr, ptr %this.addr, align 8
  %m_nameShapeMap = getelementptr inbounds %class.btCollisionWorldImporter, ptr %this1, i32 0, i32 19
  %0 = load ptr, ptr %name.addr, align 8
  call void @_ZN12btHashStringC2EPKc(ptr noundef nonnull align 8 dereferenceable(36) %ref.tmp, ptr noundef %0)
  %call = invoke noundef ptr @_ZN9btHashMapI12btHashStringP16btCollisionShapeE4findERKS0_(ptr noundef nonnull align 8 dereferenceable(128) %m_nameShapeMap, ptr noundef nonnull align 8 dereferenceable(36) %ref.tmp)
          to label %invoke.cont unwind label %lpad

invoke.cont:                                      ; preds = %entry
  call void @_ZN12btHashStringD2Ev(ptr noundef nonnull align 8 dereferenceable(36) %ref.tmp) #13
  store ptr %call, ptr %shapePtr, align 8
  %1 = load ptr, ptr %shapePtr, align 8
  %tobool = icmp ne ptr %1, null
  br i1 %tobool, label %land.lhs.true, label %if.end

land.lhs.true:                                    ; preds = %invoke.cont
  %2 = load ptr, ptr %shapePtr, align 8
  %3 = load ptr, ptr %2, align 8
  %tobool2 = icmp ne ptr %3, null
  br i1 %tobool2, label %if.then, label %if.end

if.then:                                          ; preds = %land.lhs.true
  %4 = load ptr, ptr %shapePtr, align 8
  %5 = load ptr, ptr %4, align 8
  store ptr %5, ptr %retval, align 8
  br label %return

lpad:                                             ; preds = %entry
  %6 = landingpad { ptr, i32 }
          cleanup
  %7 = extractvalue { ptr, i32 } %6, 0
  store ptr %7, ptr %exn.slot, align 8
  %8 = extractvalue { ptr, i32 } %6, 1
  store i32 %8, ptr %ehselector.slot, align 4
  call void @_ZN12btHashStringD2Ev(ptr noundef nonnull align 8 dereferenceable(36) %ref.tmp) #13
  br label %eh.resume

if.end:                                           ; preds = %land.lhs.true, %invoke.cont
  store ptr null, ptr %retval, align 8
  br label %return

return:                                           ; preds = %if.end, %if.then
  %9 = load ptr, ptr %retval, align 8
  ret ptr %9

eh.resume:                                        ; preds = %lpad
  %exn = load ptr, ptr %exn.slot, align 8
  %sel = load i32, ptr %ehselector.slot, align 4
  %lpad.val = insertvalue { ptr, i32 } poison, ptr %exn, 0
  %lpad.val3 = insertvalue { ptr, i32 } %lpad.val, i32 %sel, 1
  resume { ptr, i32 } %lpad.val3
}