; Function Attrs: mustprogress uwtable
define dso_local noundef ptr @_ZN24btCollisionWorldImporter23getCollisionShapeByNameEPKc(ptr noundef nonnull align 8 dereferenceable(1336) %this, ptr noundef %name) local_unnamed_addr #3 align 2 personality ptr @__gxx_personality_v0 {
entry:
  %ref.tmp = alloca %struct.btHashString, align 8
  %m_nameShapeMap = getelementptr inbounds i8, ptr %this, i64 696
  call void @_ZN12btHashStringC2EPKc(ptr noundef nonnull align 8 dereferenceable(36) %ref.tmp, ptr noundef %name)
  %call.i3 = invoke noundef i32 @_ZNK9btHashMapI12btHashStringP16btCollisionShapeE9findIndexERKS0_(ptr noundef nonnull align 8 dereferenceable(128) %m_nameShapeMap, ptr noundef nonnull align 8 dereferenceable(36) %ref.tmp)
          to label %invoke.cont unwind label %lpad

invoke.cont:                                      ; preds = %entry
  %cmp.i = icmp eq i32 %call.i3, -1
  %m_data.i.i = getelementptr inbounds i8, ptr %this, i64 776
  %0 = load ptr, ptr %m_data.i.i, align 8
  call void @_ZNSt7__cxx1112basic_stringIcSt11char_traitsIcESaIcEED1Ev(ptr noundef nonnull align 8 dereferenceable(32) %ref.tmp) #23
  %tobool.not4 = icmp eq ptr %0, null
  %tobool.not = select i1 %cmp.i, i1 true, i1 %tobool.not4
  br i1 %tobool.not, label %if.end, label %land.lhs.true

land.lhs.true:                                    ; preds = %invoke.cont
  %idxprom.i.i = sext i32 %call.i3 to i64
  %arrayidx.i.i = getelementptr inbounds ptr, ptr %0, i64 %idxprom.i.i
  %1 = load ptr, ptr %arrayidx.i.i, align 8
  %tobool2.not = icmp eq ptr %1, null
  br i1 %tobool2.not, label %if.end, label %return

lpad:                                             ; preds = %entry
  %2 = landingpad { ptr, i32 }
          cleanup
  call void @_ZNSt7__cxx1112basic_stringIcSt11char_traitsIcESaIcEED1Ev(ptr noundef nonnull align 8 dereferenceable(32) %ref.tmp) #23
  resume { ptr, i32 } %2

if.end:                                           ; preds = %land.lhs.true, %invoke.cont
  br label %return

return:                                           ; preds = %land.lhs.true, %if.end
  %retval.0 = phi ptr [ null, %if.end ], [ %1, %land.lhs.true ]
  ret ptr %retval.0
}